; Function Attrs: mustprogress uwtable
define hidden noundef i32 @_ZN4lean18get_cases_on_arityERKNS_16elab_environmentERKNS_4nameEb(ptr noundef nonnull align 8 dereferenceable(8) %0, ptr noundef nonnull align 8 dereferenceable(8) %1, i1 noundef zeroext %2) local_unnamed_addr #0 personality ptr @__gxx_personality_v0 {
  %4 = alloca %"class.lean::inductive_val", align 8
  call void @llvm.lifetime.start.p0(i64 8, ptr nonnull %4) #25
  call void @_ZN4lean26get_cases_on_inductive_valERKNS_16elab_environmentERKNS_4nameE(ptr dead_on_unwind nonnull writable sret(%"class.lean::inductive_val") align 8 %4, ptr noundef nonnull align 8 dereferenceable(8) %0, ptr noundef nonnull align 8 dereferenceable(8) %1)
  %5 = load ptr, ptr %4, align 8, !tbaa !3
  %6 = getelementptr inbounds nuw i8, ptr %5, i64 40
  %.05.i.i = load ptr, ptr %6, align 8, !tbaa !16
  %7 = ptrtoint ptr %.05.i.i to i64
  %8 = and i64 %7, 1
  %.not6.i.i = icmp eq i64 %8, 0
  br i1 %.not6.i.i, label %.lr.ph.i.i, label %_ZNK4lean13inductive_val11get_ncnstrsEv.exit

.lr.ph.i.i:                                       ; preds = %3, %.lr.ph.i.i
  %.08.i.i = phi ptr [ %.0.i.i, %.lr.ph.i.i ], [ %.05.i.i, %3 ]
  %.047.i.i = phi i32 [ %9, %.lr.ph.i.i ], [ 0, %3 ]
  %9 = add i32 %.047.i.i, 1
  %10 = getelementptr inbounds nuw i8, ptr %.08.i.i, i64 16
  %.0.i.i = load ptr, ptr %10, align 8, !tbaa !16
  %11 = ptrtoint ptr %.0.i.i to i64
  %12 = and i64 %11, 1
  %.not.i.i = icmp eq i64 %12, 0
  br i1 %.not.i.i, label %.lr.ph.i.i, label %_ZNK4lean13inductive_val11get_ncnstrsEv.exit, !llvm.loop !17

_ZNK4lean13inductive_val11get_ncnstrsEv.exit:     ; preds = %.lr.ph.i.i, %3
  %.04.lcssa.i.i = phi i32 [ 0, %3 ], [ %9, %.lr.ph.i.i ]
  br i1 %2, label %13, label %27

13:                                               ; preds = %_ZNK4lean13inductive_val11get_ncnstrsEv.exit
  %14 = getelementptr inbounds nuw i8, ptr %5, i64 16
  %15 = load ptr, ptr %14, align 8, !tbaa !3
  %16 = ptrtoint ptr %15 to i64
  %17 = lshr i64 %16, 1
  %18 = trunc i64 %17 to i32
  %19 = getelementptr inbounds nuw i8, ptr %5, i64 24
  %20 = load ptr, ptr %19, align 8, !tbaa !3
  %21 = ptrtoint ptr %20 to i64
  %22 = lshr i64 %21, 1
  %23 = trunc i64 %22 to i32
  %24 = add i32 %.04.lcssa.i.i, 2
  %25 = add i32 %24, %18
  %26 = add i32 %25, %23
  br label %29

27:                                               ; preds = %_ZNK4lean13inductive_val11get_ncnstrsEv.exit
  %28 = add i32 %.04.lcssa.i.i, 1
  br label %29

29:                                               ; preds = %27, %13
  %.0 = phi i32 [ %26, %13 ], [ %28, %27 ]
  %30 = ptrtoint ptr %5 to i64
  %31 = and i64 %30, 1
  %.not.i.i14 = icmp eq i64 %31, 0
  br i1 %.not.i.i14, label %32, label %_ZN4lean10object_refD2Ev.exit

32:                                               ; preds = %29
  %33 = load i32, ptr %5, align 4, !tbaa !13
  %34 = icmp sgt i32 %33, 1
  br i1 %34, label %35, label %37, !prof !15

35:                                               ; preds = %32
  %36 = add nsw i32 %33, -1
  store i32 %36, ptr %5, align 4, !tbaa !13
  br label %_ZN4lean10object_refD2Ev.exit

37:                                               ; preds = %32
  %.not.i.i.i = icmp eq i32 %33, 0
  br i1 %.not.i.i.i, label %_ZN4lean10object_refD2Ev.exit, label %38

38:                                               ; preds = %37
  invoke void @lean_dec_ref_cold(ptr noundef nonnull %5)
          to label %_ZN4lean10object_refD2Ev.exit unwind label %39

39:                                               ; preds = %38
  %40 = landingpad { ptr, i32 }
          catch ptr null
  %41 = extractvalue { ptr, i32 } %40, 0
  call void @__clang_call_terminate(ptr %41) #26
  unreachable

_ZN4lean10object_refD2Ev.exit:                    ; preds = %29, %35, %37, %38
  call void @llvm.lifetime.end.p0(i64 8, ptr nonnull %4) #25
  ret i32 %.0
}